target datalayout = "e-m:e-p270:32:32-p271:32:32-p272:64:64-i64:64-i128:128-f80:128-n8:16:32:64-S128"
target triple = "x86_64-pc-linux-gnu"

%struct.t_methoddata_pos = type { ptr, %struct.gmx_ana_index_t, ptr, i8, ptr, i32 }
%struct.gmx_ana_index_t = type { i32, ptr, i32 }

@.str.2 = private unnamed_addr constant [131 x i8] c"generated/home/dtcxzyw/WorkSpace/Projects/compilers/llvm-opt-benchmark/bench/gromacs/gromacs/src/gromacs/selection/sm_position.cpp\00", align 1
@.str.3 = private unnamed_addr constant [8 x i8] c"d->type\00", align 1
@.str.4 = private unnamed_addr constant [2 x i8] c"d\00", align 1

; Function Attrs: inlinehint mustprogress uwtable
define internal void @_ZL14gmx_sfree_implI16t_methoddata_posEvPKcS2_iPT_(ptr noundef %0, ptr noundef %1, i32 noundef %2, ptr noundef %3) #3 {
  %5 = alloca ptr, align 8
  %6 = alloca ptr, align 8
  %7 = alloca i32, align 4
  %8 = alloca ptr, align 8
  store ptr %0, ptr %5, align 8, !tbaa !43
  store ptr %1, ptr %6, align 8, !tbaa !43
  store i32 %2, ptr %7, align 4, !tbaa !4
  store ptr %3, ptr %8, align 8, !tbaa !11
  %9 = load ptr, ptr %5, align 8, !tbaa !43
  %10 = load ptr, ptr %6, align 8, !tbaa !43
  %11 = load i32, ptr %7, align 4, !tbaa !4
  %12 = load ptr, ptr %8, align 8, !tbaa !11
  call void @_Z9save_freePKcS0_iPv(ptr noundef %9, ptr noundef %10, i32 noundef %11, ptr noundef %12)
  ret void
}

; Function Attrs: inlinehint mustprogress uwtable
define internal void @_ZL14gmx_sfree_implIcEvPKcS1_iPT_(ptr noundef %0, ptr noundef %1, i32 noundef %2, ptr noundef %3) #3 {
  %5 = alloca ptr, align 8
  %6 = alloca ptr, align 8
  %7 = alloca i32, align 4
  %8 = alloca ptr, align 8
  store ptr %0, ptr %5, align 8, !tbaa !43
  store ptr %1, ptr %6, align 8, !tbaa !43
  store i32 %2, ptr %7, align 4, !tbaa !4
  store ptr %3, ptr %8, align 8, !tbaa !43
  %9 = load ptr, ptr %5, align 8, !tbaa !43
  %10 = load ptr, ptr %6, align 8, !tbaa !43
  %11 = load i32, ptr %7, align 4, !tbaa !4
  %12 = load ptr, ptr %8, align 8, !tbaa !43
  call void @_Z9save_freePKcS0_iPv(ptr noundef %9, ptr noundef %10, i32 noundef %11, ptr noundef %12)
  ret void
}

; Function Attrs: mustprogress uwtable
define internal void @_ZL13free_data_posPv(ptr noundef %0) #0 {
  %2 = alloca ptr, align 8
  %3 = alloca ptr, align 8
  store ptr %0, ptr %2, align 8, !tbaa !11
  call void @llvm.lifetime.start.p0(i64 8, ptr %3) #6
  %4 = load ptr, ptr %2, align 8, !tbaa !11
  store ptr %4, ptr %3, align 8, !tbaa !11
  %5 = load ptr, ptr %3, align 8, !tbaa !11
  %6 = getelementptr inbounds nuw %struct.t_methoddata_pos, ptr %5, i32 0, i32 4
  %7 = load ptr, ptr %6, align 8, !tbaa !22
  call void @_ZL14gmx_sfree_implIcEvPKcS1_iPT_(ptr noundef @.str.3, ptr noundef @.str.2, i32 noundef 369, ptr noundef %7)
  %8 = load ptr, ptr %3, align 8, !tbaa !11
  %9 = getelementptr inbounds nuw %struct.t_methoddata_pos, ptr %8, i32 0, i32 2
  %10 = load ptr, ptr %9, align 8, !tbaa !13
  call void @_Z20gmx_ana_poscalc_freeP17gmx_ana_poscalc_t(ptr noundef %10)
  %11 = load ptr, ptr %3, align 8, !tbaa !11
  call void @_ZL14gmx_sfree_implI16t_methoddata_posEvPKcS2_iPT_(ptr noundef @.str.4, ptr noundef @.str.2, i32 noundef 371, ptr noundef %11)
  call void @llvm.lifetime.end.p0(i64 8, ptr %3) #6
  ret void
}