; Function Attrs: mustprogress uwtable
define internal void @_ZL13free_data_posPv(ptr noundef %0) #0 {
  %2 = getelementptr inbounds nuw i8, ptr %0, i64 48
  %3 = load ptr, ptr %2, align 8, !tbaa !18
  tail call void @_Z9save_freePKcS0_iPv(ptr noundef nonnull @.str.3, ptr noundef nonnull @.str.2, i32 noundef 369, ptr noundef %3)
  %4 = getelementptr inbounds nuw i8, ptr %0, i64 32
  %5 = load ptr, ptr %4, align 8, !tbaa !7
  tail call void @_Z20gmx_ana_poscalc_freeP17gmx_ana_poscalc_t(ptr noundef %5)
  tail call void @_Z9save_freePKcS0_iPv(ptr noundef nonnull @.str.4, ptr noundef nonnull @.str.2, i32 noundef 371, ptr noundef %0)
  ret void
}